target datalayout = "e-m:e-p270:32:32-p271:32:32-p272:64:64-i64:64-i128:128-f80:128-n8:16:32:64-S128"
target triple = "x86_64-pc-linux-gnu"

%struct.expert_field = type { i32, i32 }
%struct._packet_info = type { ptr, ptr, i32, i32, %struct.nstime_t, %struct.nstime_t, %struct.nstime_t, i8, ptr, ptr, ptr, ptr, %struct._address, %struct._address, %struct._address, %struct._address, %struct._address, %struct._address, i32, ptr, i8, [3 x i8], %struct.anon, i32, i32, i32, i32, ptr, i8, ptr, ptr, i16, i16, i32, i32, i16, i32, i32, ptr, ptr, ptr, i8, i8, i16, i16, i16, i32, i16, i16, ptr, ptr, ptr, ptr, ptr, i32, i32 }
%struct.nstime_t = type { i64, i32 }
%struct._address = type { i32, i32, ptr, ptr }
%struct.anon = type { i8, [3 x i8] }

@hf_cfun_fun = internal global i32 0, align 4
@hf_cfun_rst = internal global i32 0, align 4
@ei_cfun_res_fun = internal global %struct.expert_field zeroinitializer, align 4
@ei_cfun_range_fun = internal global %struct.expert_field zeroinitializer, align 4
@ei_cfun_rst = internal global %struct.expert_field zeroinitializer, align 4

; Function Attrs: alwaysinline nounwind
define internal ptr @memcpy.inline(ptr noalias %0, ptr noalias %1, i64 %2) #9 {
  %4 = alloca ptr, align 8
  %5 = alloca ptr, align 8
  %6 = alloca i64, align 8
  store ptr %0, ptr %4, align 8
  store ptr %1, ptr %5, align 8
  store i64 %2, ptr %6, align 8
  %7 = load ptr, ptr %4, align 8
  %8 = load ptr, ptr %5, align 8
  %9 = load i64, ptr %6, align 8
  %10 = load ptr, ptr %4, align 8
  %11 = call i64 @llvm.objectsize.i64.p0(ptr %10, i1 false, i1 true, i1 true)
  %12 = call ptr @__memcpy_chk(ptr noundef %7, ptr noundef %8, i64 noundef %9, i64 noundef %11) #12
  ret ptr %12
}

; Function Attrs: null_pointer_is_valid sspstrong uwtable
define internal i32 @get_uint_parameter(ptr noundef %0, ptr noundef %1, i32 noundef %2) #0 {
  %4 = alloca ptr, align 8
  %5 = alloca ptr, align 8
  %6 = alloca i32, align 4
  %7 = alloca i32, align 4
  %8 = alloca ptr, align 8
  store ptr %0, ptr %4, align 8
  store ptr %1, ptr %5, align 8
  store i32 %2, ptr %6, align 4
  call void @llvm.lifetime.start.p0(i64 4, ptr %7) #12
  call void @llvm.lifetime.start.p0(i64 8, ptr %8) #12
  %9 = load ptr, ptr %4, align 8
  %10 = load i32, ptr %6, align 4
  %11 = add i32 %10, 1
  %12 = sext i32 %11 to i64
  %13 = call noalias ptr @wmem_alloc(ptr noundef %9, i64 noundef %12) #13
  store ptr %13, ptr %8, align 8
  %14 = load ptr, ptr %8, align 8
  %15 = load ptr, ptr %5, align 8
  %16 = load i32, ptr %6, align 4
  %17 = sext i32 %16 to i64
  %18 = call ptr @memcpy.inline(ptr noundef %14, ptr noundef %15, i64 noundef %17) #12
  %19 = load ptr, ptr %8, align 8
  %20 = load i32, ptr %6, align 4
  %21 = sext i32 %20 to i64
  %22 = getelementptr i8, ptr %19, i64 %21
  store i8 0, ptr %22, align 1
  %23 = load ptr, ptr %8, align 8
  %24 = call i64 @g_ascii_strtoull(ptr noundef %23, ptr noundef null, i32 noundef 10)
  %25 = trunc i64 %24 to i32
  store i32 %25, ptr %7, align 4
  %26 = load i32, ptr %7, align 4
  call void @llvm.lifetime.end.p0(i64 8, ptr %8) #12
  call void @llvm.lifetime.end.p0(i64 4, ptr %7) #12
  ret i32 %26
}

; Function Attrs: nounwind null_pointer_is_valid sspstrong uwtable
define internal zeroext i1 @check_cfun(i32 noundef %0, i16 noundef zeroext %1) #4 {
  %3 = alloca i1, align 1
  %4 = alloca i32, align 4
  %5 = alloca i16, align 2
  store i32 %0, ptr %4, align 4
  store i16 %1, ptr %5, align 2
  %6 = load i32, ptr %4, align 4
  %7 = icmp eq i32 %6, 2
  br i1 %7, label %8, label %21

8:                                                ; preds = %2
  %9 = load i16, ptr %5, align 2
  %10 = zext i16 %9 to i32
  %11 = icmp eq i32 %10, 61
  br i1 %11, label %20, label %12

12:                                               ; preds = %8
  %13 = load i16, ptr %5, align 2
  %14 = zext i16 %13 to i32
  %15 = icmp eq i32 %14, 63
  br i1 %15, label %20, label %16

16:                                               ; preds = %12
  %17 = load i16, ptr %5, align 2
  %18 = zext i16 %17 to i32
  %19 = icmp eq i32 %18, 15679
  br i1 %19, label %20, label %21

20:                                               ; preds = %16, %12, %8
  store i1 true, ptr %3, align 1
  br label %30

21:                                               ; preds = %16, %2
  %22 = load i32, ptr %4, align 4
  %23 = icmp eq i32 %22, 1
  br i1 %23, label %24, label %29

24:                                               ; preds = %21
  %25 = load i16, ptr %5, align 2
  %26 = zext i16 %25 to i32
  %27 = icmp eq i32 %26, 58
  br i1 %27, label %28, label %29

28:                                               ; preds = %24
  store i1 true, ptr %3, align 1
  br label %30

29:                                               ; preds = %24, %21
  store i1 false, ptr %3, align 1
  br label %30

30:                                               ; preds = %29, %28, %20
  %31 = load i1, ptr %3, align 1
  ret i1 %31
}

; Function Attrs: null_pointer_is_valid sspstrong uwtable
define internal zeroext i1 @dissect_cfun_parameter(ptr noundef %0, ptr noundef %1, ptr noundef %2, i32 noundef %3, i32 noundef %4, i16 noundef zeroext %5, ptr noundef %6, i32 noundef %7, i32 noundef %8, ptr noundef %9, ptr noundef %10) #0 {
  %12 = alloca i1, align 1
  %13 = alloca ptr, align 8
  %14 = alloca ptr, align 8
  %15 = alloca ptr, align 8
  %16 = alloca i32, align 4
  %17 = alloca i32, align 4
  %18 = alloca i16, align 2
  %19 = alloca ptr, align 8
  %20 = alloca i32, align 4
  %21 = alloca i32, align 4
  %22 = alloca ptr, align 8
  %23 = alloca ptr, align 8
  %24 = alloca ptr, align 8
  %25 = alloca i32, align 4
  %26 = alloca i32, align 4
  store ptr %0, ptr %13, align 8
  store ptr %1, ptr %14, align 8
  store ptr %2, ptr %15, align 8
  store i32 %3, ptr %16, align 4
  store i32 %4, ptr %17, align 4
  store i16 %5, ptr %18, align 2
  store ptr %6, ptr %19, align 8
  store i32 %7, ptr %20, align 4
  store i32 %8, ptr %21, align 4
  store ptr %9, ptr %22, align 8
  store ptr %10, ptr %23, align 8
  call void @llvm.lifetime.start.p0(i64 8, ptr %24) #12
  call void @llvm.lifetime.start.p0(i64 4, ptr %25) #12
  %27 = load i32, ptr %17, align 4
  %28 = load i16, ptr %18, align 2
  %29 = call zeroext i1 @check_cfun(i32 noundef %27, i16 noundef zeroext %28)
  br i1 %29, label %31, label %30

30:                                               ; preds = %11
  store i1 false, ptr %12, align 1
  store i32 1, ptr %26, align 4
  br label %154

31:                                               ; preds = %11
  %32 = load i32, ptr %20, align 4
  %33 = icmp ugt i32 %32, 1
  br i1 %33, label %34, label %35

34:                                               ; preds = %31
  store i1 false, ptr %12, align 1
  store i32 1, ptr %26, align 4
  br label %154

35:                                               ; preds = %31
  %36 = load i32, ptr %17, align 4
  %37 = icmp eq i32 %36, 2
  br i1 %37, label %38, label %94

38:                                               ; preds = %35
  %39 = load i32, ptr %20, align 4
  switch i32 %39, label %93 [
    i32 0, label %40
    i32 1, label %72
  ]

40:                                               ; preds = %38
  %41 = load ptr, ptr %14, align 8
  %42 = getelementptr inbounds nuw %struct._packet_info, ptr %41, i32 0, i32 51
  %43 = load ptr, ptr %42, align 8
  %44 = load ptr, ptr %19, align 8
  %45 = load i32, ptr %21, align 4
  %46 = call i32 @get_uint_parameter(ptr noundef %43, ptr noundef %44, i32 noundef %45)
  store i32 %46, ptr %25, align 4
  %47 = load ptr, ptr %15, align 8
  %48 = load i32, ptr @hf_cfun_fun, align 4
  %49 = load ptr, ptr %13, align 8
  %50 = load i32, ptr %16, align 4
  %51 = load i32, ptr %21, align 4
  %52 = load i32, ptr %25, align 4
  %53 = call ptr @proto_tree_add_uint(ptr noundef %47, i32 noundef %48, ptr noundef %49, i32 noundef %50, i32 noundef %51, i32 noundef %52)
  store ptr %53, ptr %24, align 8
  %54 = load i32, ptr %25, align 4
  %55 = icmp ugt i32 %54, 4
  br i1 %55, label %56, label %63

56:                                               ; preds = %40
  %57 = load i32, ptr %25, align 4
  %58 = icmp ult i32 %57, 128
  br i1 %58, label %59, label %63

59:                                               ; preds = %56
  %60 = load ptr, ptr %14, align 8
  %61 = load ptr, ptr %24, align 8
  %62 = call ptr @expert_add_info(ptr noundef %60, ptr noundef %61, ptr noundef @ei_cfun_res_fun)
  br label %71

63:                                               ; preds = %56, %40
  %64 = load i32, ptr %25, align 4
  %65 = icmp uge i32 %64, 128
  br i1 %65, label %66, label %70

66:                                               ; preds = %63
  %67 = load ptr, ptr %14, align 8
  %68 = load ptr, ptr %24, align 8
  %69 = call ptr @expert_add_info(ptr noundef %67, ptr noundef %68, ptr noundef @ei_cfun_range_fun)
  br label %70

70:                                               ; preds = %66, %63
  br label %71

71:                                               ; preds = %70, %59
  br label %93

72:                                               ; preds = %38
  %73 = load ptr, ptr %14, align 8
  %74 = getelementptr inbounds nuw %struct._packet_info, ptr %73, i32 0, i32 51
  %75 = load ptr, ptr %74, align 8
  %76 = load ptr, ptr %19, align 8
  %77 = load i32, ptr %21, align 4
  %78 = call i32 @get_uint_parameter(ptr noundef %75, ptr noundef %76, i32 noundef %77)
  store i32 %78, ptr %25, align 4
  %79 = load ptr, ptr %15, align 8
  %80 = load i32, ptr @hf_cfun_rst, align 4
  %81 = load ptr, ptr %13, align 8
  %82 = load i32, ptr %16, align 4
  %83 = load i32, ptr %21, align 4
  %84 = load i32, ptr %25, align 4
  %85 = call ptr @proto_tree_add_uint(ptr noundef %79, i32 noundef %80, ptr noundef %81, i32 noundef %82, i32 noundef %83, i32 noundef %84)
  store ptr %85, ptr %24, align 8
  %86 = load i32, ptr %25, align 4
  %87 = icmp ugt i32 %86, 1
  br i1 %87, label %88, label %92

88:                                               ; preds = %72
  %89 = load ptr, ptr %14, align 8
  %90 = load ptr, ptr %24, align 8
  %91 = call ptr @expert_add_info(ptr noundef %89, ptr noundef %90, ptr noundef @ei_cfun_rst)
  br label %92

92:                                               ; preds = %88, %72
  br label %93

93:                                               ; preds = %38, %92, %71
  br label %94

94:                                               ; preds = %93, %35
  %95 = load i32, ptr %17, align 4
  %96 = icmp eq i32 %95, 1
  br i1 %96, label %97, label %153

97:                                               ; preds = %94
  %98 = load i32, ptr %20, align 4
  switch i32 %98, label %152 [
    i32 0, label %99
    i32 1, label %131
  ]

99:                                               ; preds = %97
  %100 = load ptr, ptr %14, align 8
  %101 = getelementptr inbounds nuw %struct._packet_info, ptr %100, i32 0, i32 51
  %102 = load ptr, ptr %101, align 8
  %103 = load ptr, ptr %19, align 8
  %104 = load i32, ptr %21, align 4
  %105 = call i32 @get_uint_parameter(ptr noundef %102, ptr noundef %103, i32 noundef %104)
  store i32 %105, ptr %25, align 4
  %106 = load ptr, ptr %15, align 8
  %107 = load i32, ptr @hf_cfun_fun, align 4
  %108 = load ptr, ptr %13, align 8
  %109 = load i32, ptr %16, align 4
  %110 = load i32, ptr %21, align 4
  %111 = load i32, ptr %25, align 4
  %112 = call ptr @proto_tree_add_uint(ptr noundef %106, i32 noundef %107, ptr noundef %108, i32 noundef %109, i32 noundef %110, i32 noundef %111)
  store ptr %112, ptr %24, align 8
  %113 = load i32, ptr %25, align 4
  %114 = icmp ugt i32 %113, 4
  br i1 %114, label %115, label %122

115:                                              ; preds = %99
  %116 = load i32, ptr %25, align 4
  %117 = icmp ult i32 %116, 128
  br i1 %117, label %118, label %122

118:                                              ; preds = %115
  %119 = load ptr, ptr %14, align 8
  %120 = load ptr, ptr %24, align 8
  %121 = call ptr @expert_add_info(ptr noundef %119, ptr noundef %120, ptr noundef @ei_cfun_res_fun)
  br label %130

122:                                              ; preds = %115, %99
  %123 = load i32, ptr %25, align 4
  %124 = icmp uge i32 %123, 128
  br i1 %124, label %125, label %129

125:                                              ; preds = %122
  %126 = load ptr, ptr %14, align 8
  %127 = load ptr, ptr %24, align 8
  %128 = call ptr @expert_add_info(ptr noundef %126, ptr noundef %127, ptr noundef @ei_cfun_range_fun)
  br label %129

129:                                              ; preds = %125, %122
  br label %130

130:                                              ; preds = %129, %118
  br label %152

131:                                              ; preds = %97
  %132 = load ptr, ptr %14, align 8
  %133 = getelementptr inbounds nuw %struct._packet_info, ptr %132, i32 0, i32 51
  %134 = load ptr, ptr %133, align 8
  %135 = load ptr, ptr %19, align 8
  %136 = load i32, ptr %21, align 4
  %137 = call i32 @get_uint_parameter(ptr noundef %134, ptr noundef %135, i32 noundef %136)
  store i32 %137, ptr %25, align 4
  %138 = load ptr, ptr %15, align 8
  %139 = load i32, ptr @hf_cfun_rst, align 4
  %140 = load ptr, ptr %13, align 8
  %141 = load i32, ptr %16, align 4
  %142 = load i32, ptr %21, align 4
  %143 = load i32, ptr %25, align 4
  %144 = call ptr @proto_tree_add_uint(ptr noundef %138, i32 noundef %139, ptr noundef %140, i32 noundef %141, i32 noundef %142, i32 noundef %143)
  store ptr %144, ptr %24, align 8
  %145 = load i32, ptr %25, align 4
  %146 = icmp ugt i32 %145, 1
  br i1 %146, label %147, label %151

147:                                              ; preds = %131
  %148 = load ptr, ptr %14, align 8
  %149 = load ptr, ptr %24, align 8
  %150 = call ptr @expert_add_info(ptr noundef %148, ptr noundef %149, ptr noundef @ei_cfun_rst)
  br label %151

151:                                              ; preds = %147, %131
  br label %152

152:                                              ; preds = %97, %151, %130
  br label %153

153:                                              ; preds = %152, %94
  store i1 true, ptr %12, align 1
  store i32 1, ptr %26, align 4
  br label %154

154:                                              ; preds = %153, %34, %30
  call void @llvm.lifetime.end.p0(i64 4, ptr %25) #12
  call void @llvm.lifetime.end.p0(i64 8, ptr %24) #12
  %155 = load i1, ptr %12, align 1
  ret i1 %155
}