; Function Attrs: null_pointer_is_valid sspstrong uwtable
define internal noundef zeroext i1 @dissect_cfun_parameter(ptr noundef %0, ptr noundef %1, ptr noundef %2, i32 noundef %3, i32 noundef %4, i16 noundef zeroext %5, ptr noundef readonly captures(none) %6, i32 noundef %7, i32 noundef %8, ptr readnone captures(none) %9, ptr readnone captures(none) %10) #0 {
  %12 = icmp eq i32 %4, 2
  br i1 %12, label %13, label %14

13:                                               ; preds = %11
  switch i16 %5, label %14 [
    i16 15679, label %check_cfun.exit
    i16 63, label %check_cfun.exit
    i16 61, label %check_cfun.exit
  ]

14:                                               ; preds = %13, %11
  %15 = icmp ne i32 %4, 1
  %16 = icmp ne i16 %5, 58
  %or.cond8.i.not = or i1 %15, %16
  br label %check_cfun.exit

check_cfun.exit:                                  ; preds = %13, %13, %13, %14
  %.0.i = phi i1 [ false, %13 ], [ false, %13 ], [ false, %13 ], [ %or.cond8.i.not, %14 ]
  %17 = icmp ugt i32 %7, 1
  %or.cond65 = or i1 %17, %.0.i
  br i1 %or.cond65, label %75, label %18

18:                                               ; preds = %check_cfun.exit
  switch i32 %4, label %75 [
    i32 2, label %19
    i32 1, label %47
  ]

19:                                               ; preds = %18
  %trunc = trunc nuw i32 %7 to i1
  %20 = getelementptr inbounds nuw i8, ptr %1, i64 408
  %21 = load ptr, ptr %20, align 8
  %22 = add i32 %8, 1
  %23 = sext i32 %22 to i64
  %24 = tail call noalias ptr @wmem_alloc(ptr noundef %21, i64 noundef %23) #12
  %25 = sext i32 %8 to i64
  %26 = icmp ne i32 %22, -1
  tail call void @llvm.assume(i1 %26)
  %27 = tail call ptr @__memcpy_chk(ptr noundef %24, ptr noundef readonly %6, i64 noundef range(i64 -2147483648, 2147483648) %25, i64 noundef %23) #13
  %28 = getelementptr i8, ptr %24, i64 %25
  store i8 0, ptr %28, align 1
  %29 = tail call i64 @g_ascii_strtoull(ptr noundef %24, ptr noundef null, i32 noundef 10)
  %30 = trunc i64 %29 to i32
  br i1 %trunc, label %41, label %31

31:                                               ; preds = %19
  %32 = load i32, ptr @hf_cfun_fun, align 4
  %33 = tail call ptr @proto_tree_add_uint(ptr noundef %2, i32 noundef %32, ptr noundef %0, i32 noundef %3, i32 noundef %8, i32 noundef %30)
  %34 = add i32 %30, -5
  %or.cond = icmp ult i32 %34, 123
  br i1 %or.cond, label %35, label %37

35:                                               ; preds = %31
  %36 = tail call ptr @expert_add_info(ptr noundef %1, ptr noundef %33, ptr noundef nonnull @ei_cfun_res_fun)
  br label %75

37:                                               ; preds = %31
  %38 = icmp ugt i32 %30, 127
  br i1 %38, label %39, label %75

39:                                               ; preds = %37
  %40 = tail call ptr @expert_add_info(ptr noundef %1, ptr noundef %33, ptr noundef nonnull @ei_cfun_range_fun)
  br label %75

41:                                               ; preds = %19
  %42 = load i32, ptr @hf_cfun_rst, align 4
  %43 = tail call ptr @proto_tree_add_uint(ptr noundef %2, i32 noundef %42, ptr noundef %0, i32 noundef %3, i32 noundef %8, i32 noundef %30)
  %44 = icmp ugt i32 %30, 1
  br i1 %44, label %45, label %75

45:                                               ; preds = %41
  %46 = tail call ptr @expert_add_info(ptr noundef %1, ptr noundef %43, ptr noundef nonnull @ei_cfun_rst)
  br label %75

47:                                               ; preds = %18
  %trunc63 = trunc nuw i32 %7 to i1
  %48 = getelementptr inbounds nuw i8, ptr %1, i64 408
  %49 = load ptr, ptr %48, align 8
  %50 = add i32 %8, 1
  %51 = sext i32 %50 to i64
  %52 = tail call noalias ptr @wmem_alloc(ptr noundef %49, i64 noundef %51) #12
  %53 = sext i32 %8 to i64
  %54 = icmp ne i32 %50, -1
  tail call void @llvm.assume(i1 %54)
  %55 = tail call ptr @__memcpy_chk(ptr noundef %52, ptr noundef readonly %6, i64 noundef range(i64 -2147483648, 2147483648) %53, i64 noundef %51) #13
  %56 = getelementptr i8, ptr %52, i64 %53
  store i8 0, ptr %56, align 1
  %57 = tail call i64 @g_ascii_strtoull(ptr noundef %52, ptr noundef null, i32 noundef 10)
  %58 = trunc i64 %57 to i32
  br i1 %trunc63, label %69, label %59

59:                                               ; preds = %47
  %60 = load i32, ptr @hf_cfun_fun, align 4
  %61 = tail call ptr @proto_tree_add_uint(ptr noundef %2, i32 noundef %60, ptr noundef %0, i32 noundef %3, i32 noundef %8, i32 noundef %58)
  %62 = add i32 %58, -5
  %or.cond3 = icmp ult i32 %62, 123
  br i1 %or.cond3, label %63, label %65

63:                                               ; preds = %59
  %64 = tail call ptr @expert_add_info(ptr noundef %1, ptr noundef %61, ptr noundef nonnull @ei_cfun_res_fun)
  br label %75

65:                                               ; preds = %59
  %66 = icmp ugt i32 %58, 127
  br i1 %66, label %67, label %75

67:                                               ; preds = %65
  %68 = tail call ptr @expert_add_info(ptr noundef %1, ptr noundef %61, ptr noundef nonnull @ei_cfun_range_fun)
  br label %75

69:                                               ; preds = %47
  %70 = load i32, ptr @hf_cfun_rst, align 4
  %71 = tail call ptr @proto_tree_add_uint(ptr noundef %2, i32 noundef %70, ptr noundef %0, i32 noundef %3, i32 noundef %8, i32 noundef %58)
  %72 = icmp ugt i32 %58, 1
  br i1 %72, label %73, label %75

73:                                               ; preds = %69
  %74 = tail call ptr @expert_add_info(ptr noundef %1, ptr noundef %71, ptr noundef nonnull @ei_cfun_rst)
  br label %75

75:                                               ; preds = %41, %45, %35, %39, %37, %69, %73, %63, %67, %65, %18, %check_cfun.exit
  %.0 = xor i1 %or.cond65, true
  ret i1 %.0
}